; Function Attrs: mustprogress uwtable
define noundef i32 @_ZN6google8protobuf2io15FileInputStream22CopyingFileInputStream4SkipEi(ptr noundef nonnull align 8 dereferenceable(24) %this, i32 noundef %count) unnamed_addr #3 align 2 personality ptr @__gxx_personality_v0 {
entry:
  %ref.tmp3 = alloca %"class.absl::lts_20230802::log_internal::LogMessageFatal", align 8
  %is_closed_ = getelementptr inbounds i8, ptr %this, i64 13
  %0 = load i8, ptr %is_closed_, align 1
  %1 = and i8 %0, 1
  %tobool.not.not = icmp eq i8 %1, 0
  br i1 %tobool.not.not, label %cleanup.done, label %cond.false

cond.false:                                       ; preds = %entry
  call void @_ZN4absl12lts_2023080212log_internal15LogMessageFatalC1EPKciSt17basic_string_viewIcSt11char_traitsIcEE(ptr noundef nonnull align 8 dereferenceable(16) %ref.tmp3, ptr noundef nonnull @.str, i32 noundef 131, i64 11, ptr nonnull @.str.2) #17
  call void @_ZN4absl12lts_2023080212log_internal15LogMessageFatalD1Ev(ptr noundef nonnull align 8 dereferenceable(16) %ref.tmp3) #18
  unreachable

cleanup.done:                                     ; preds = %entry
  %previous_seek_failed_ = getelementptr inbounds i8, ptr %this, i64 20
  %2 = load i8, ptr %previous_seek_failed_, align 4
  %3 = and i8 %2, 1
  %tobool8.not = icmp eq i8 %3, 0
  br i1 %tobool8.not, label %land.lhs.true, label %if.else

land.lhs.true:                                    ; preds = %cleanup.done
  %file_ = getelementptr inbounds i8, ptr %this, i64 8
  %4 = load i32, ptr %file_, align 8
  %conv = sext i32 %count to i64
  %call9 = tail call i64 @lseek(i32 noundef %4, i64 noundef %conv, i32 noundef 1) #16
  %cmp.not = icmp eq i64 %call9, -1
  br i1 %cmp.not, label %if.else, label %return

if.else:                                          ; preds = %land.lhs.true, %cleanup.done
  store i8 1, ptr %previous_seek_failed_, align 4
  %call11 = tail call noundef i32 @_ZN6google8protobuf2io18CopyingInputStream4SkipEi(ptr noundef nonnull align 8 dereferenceable(8) %this, i32 noundef %count)
  br label %return

return:                                           ; preds = %land.lhs.true, %if.else
  %retval.0 = phi i32 [ %call11, %if.else ], [ %count, %land.lhs.true ]
  ret i32 %retval.0
}